; ModuleID = 'source-C-CXX/5/3719.cpp'
source_filename = "source-C-CXX/5/3719.cpp"
target datalayout = "e-m:e-p270:32:32-p271:32:32-p272:64:64-i64:64-f80:128-n8:16:32:64-S128"
target triple = "x86_64-pc-linux-gnu"

%"class.std::ios_base::Init" = type { i8 }
%"class.std::basic_istream" = type { i32 (...)**, i64, %"class.std::basic_ios" }
%"class.std::basic_ios" = type { %"class.std::ios_base", %"class.std::basic_ostream"*, i8, i8, %"class.std::basic_streambuf"*, %"class.std::ctype"*, %"class.std::num_put"*, %"class.std::num_get"* }
%"class.std::ios_base" = type { i32 (...)**, i64, i64, i32, i32, i32, %"struct.std::ios_base::_Callback_list"*, %"struct.std::ios_base::_Words", [8 x %"struct.std::ios_base::_Words"], i32, %"struct.std::ios_base::_Words"*, %"class.std::locale" }
%"struct.std::ios_base::_Callback_list" = type { %"struct.std::ios_base::_Callback_list"*, void (i32, %"class.std::ios_base"*, i32)*, i32, i32 }
%"struct.std::ios_base::_Words" = type { i8*, i64 }
%"class.std::locale" = type { %"class.std::locale::_Impl"* }
%"class.std::locale::_Impl" = type { i32, %"class.std::locale::facet"**, i64, %"class.std::locale::facet"**, i8** }
%"class.std::locale::facet" = type <{ i32 (...)**, i32, [4 x i8] }>
%"class.std::basic_ostream" = type { i32 (...)**, %"class.std::basic_ios" }
%"class.std::basic_streambuf" = type { i32 (...)**, i8*, i8*, i8*, i8*, i8*, i8*, %"class.std::locale" }
%"class.std::ctype" = type <{ %"class.std::locale::facet.base", [4 x i8], %struct.__locale_struct*, i8, [7 x i8], i32*, i32*, i16*, i8, [256 x i8], [256 x i8], i8, [6 x i8] }>
%"class.std::locale::facet.base" = type <{ i32 (...)**, i32 }>
%struct.__locale_struct = type { [13 x %struct.__locale_data*], i16*, i32*, i32*, [13 x i8*] }
%struct.__locale_data = type opaque
%"class.std::num_put" = type { %"class.std::locale::facet.base", [4 x i8] }
%"class.std::num_get" = type { %"class.std::locale::facet.base", [4 x i8] }

@_ZStL8__ioinit = internal global %"class.std::ios_base::Init" zeroinitializer, align 1
@__dso_handle = external hidden global i8
@_ZSt3cin = external global %"class.std::basic_istream", align 8
@_ZSt4cout = external global %"class.std::basic_ostream", align 8
@llvm.global_ctors = appending global [1 x { i32, void ()*, i8* }] [{ i32, void ()*, i8* } { i32 65535, void ()* @_GLOBAL__sub_I_3719.cpp, i8* null }]

declare void @_ZNSt8ios_base4InitC1Ev(%"class.std::ios_base::Init"* nonnull align 1 dereferenceable(1)) unnamed_addr #0

; Function Attrs: nounwind
declare void @_ZNSt8ios_base4InitD1Ev(%"class.std::ios_base::Init"* nonnull align 1 dereferenceable(1)) unnamed_addr #1

; Function Attrs: nofree nounwind
declare i32 @__cxa_atexit(void (i8*)*, i8*, i8*) local_unnamed_addr #2

; Function Attrs: mustprogress norecurse sspstrong uwtable
define dso_local i32 @main() local_unnamed_addr #3 {
  %1 = alloca [100 x [100 x i32]], align 16
  %2 = alloca i32, align 4
  %3 = alloca i32, align 4
  %4 = alloca i32, align 4
  %5 = bitcast [100 x [100 x i32]]* %1 to i8*
  call void @llvm.lifetime.start.p0i8(i64 40000, i8* nonnull %5) #7
  %6 = bitcast i32* %2 to i8*
  call void @llvm.lifetime.start.p0i8(i64 4, i8* nonnull %6) #7
  %7 = bitcast i32* %3 to i8*
  call void @llvm.lifetime.start.p0i8(i64 4, i8* nonnull %7) #7
  %8 = bitcast i32* %4 to i8*
  call void @llvm.lifetime.start.p0i8(i64 4, i8* nonnull %8) #7
  %9 = call nonnull align 8 dereferenceable(16) %"class.std::basic_istream"* @_ZNSirsERi(%"class.std::basic_istream"* nonnull align 8 dereferenceable(16) @_ZSt3cin, i32* nonnull align 4 dereferenceable(4) %2)
  %10 = load i32, i32* %2, align 4, !tbaa !5
  %11 = icmp slt i32 %10, 1
  br i1 %11, label %112, label %12

12:                                               ; preds = %0, %105
  %13 = phi i32 [ %109, %105 ], [ 1, %0 ]
  %14 = call nonnull align 8 dereferenceable(16) %"class.std::basic_istream"* @_ZNSirsERi(%"class.std::basic_istream"* nonnull align 8 dereferenceable(16) @_ZSt3cin, i32* nonnull align 4 dereferenceable(4) %3)
  %15 = call nonnull align 8 dereferenceable(16) %"class.std::basic_istream"* @_ZNSirsERi(%"class.std::basic_istream"* nonnull align 8 dereferenceable(16) %14, i32* nonnull align 4 dereferenceable(4) %4)
  %16 = load i32, i32* %3, align 4, !tbaa !5
  %17 = icmp sgt i32 %16, 0
  %18 = load i32, i32* %4, align 4
  %19 = icmp sgt i32 %18, 0
  %20 = select i1 %17, i1 %19, i1 false
  br i1 %20, label %21, label %77

21:                                               ; preds = %12, %70
  %22 = phi i32 [ %71, %70 ], [ %18, %12 ]
  %23 = phi i64 [ %73, %70 ], [ 0, %12 ]
  %24 = phi i32 [ %72, %70 ], [ 0, %12 ]
  %25 = icmp sgt i32 %22, 0
  br i1 %25, label %26, label %70

26:                                               ; preds = %21
  %27 = icmp eq i64 %23, 0
  br i1 %27, label %35, label %28

28:                                               ; preds = %26
  %29 = getelementptr inbounds [100 x [100 x i32]], [100 x [100 x i32]]* %1, i64 0, i64 %23, i64 0
  %30 = call nonnull align 8 dereferenceable(16) %"class.std::basic_istream"* @_ZNSirsERi(%"class.std::basic_istream"* nonnull align 8 dereferenceable(16) @_ZSt3cin, i32* nonnull align 4 dereferenceable(4) %29)
  %31 = load i32, i32* %29, align 16, !tbaa !5
  %32 = add nsw i32 %31, %24
  %33 = load i32, i32* %4, align 4, !tbaa !5
  %34 = icmp sgt i32 %33, 1
  br i1 %34, label %46, label %70

35:                                               ; preds = %26, %35
  %36 = phi i64 [ %42, %35 ], [ 0, %26 ]
  %37 = phi i32 [ %41, %35 ], [ %24, %26 ]
  %38 = getelementptr inbounds [100 x [100 x i32]], [100 x [100 x i32]]* %1, i64 0, i64 0, i64 %36
  %39 = call nonnull align 8 dereferenceable(16) %"class.std::basic_istream"* @_ZNSirsERi(%"class.std::basic_istream"* nonnull align 8 dereferenceable(16) @_ZSt3cin, i32* nonnull align 4 dereferenceable(4) %38)
  %40 = load i32, i32* %38, align 4, !tbaa !5
  %41 = add nsw i32 %40, %37
  %42 = add nuw nsw i64 %36, 1
  %43 = load i32, i32* %4, align 4, !tbaa !5
  %44 = sext i32 %43 to i64
  %45 = icmp slt i64 %42, %44
  br i1 %45, label %35, label %70, !llvm.loop !9

46:                                               ; preds = %28, %64
  %47 = phi i64 [ %67, %64 ], [ 1, %28 ]
  %48 = phi i32 [ %66, %64 ], [ %32, %28 ]
  %49 = getelementptr inbounds [100 x [100 x i32]], [100 x [100 x i32]]* %1, i64 0, i64 %23, i64 %47
  %50 = call nonnull align 8 dereferenceable(16) %"class.std::basic_istream"* @_ZNSirsERi(%"class.std::basic_istream"* nonnull align 8 dereferenceable(16) @_ZSt3cin, i32* nonnull align 4 dereferenceable(4) %49)
  %51 = load i32, i32* %3, align 4, !tbaa !5
  %52 = add nsw i32 %51, -1
  %53 = zext i32 %52 to i64
  %54 = icmp eq i64 %23, %53
  br i1 %54, label %60, label %55

55:                                               ; preds = %46
  %56 = load i32, i32* %4, align 4, !tbaa !5
  %57 = add nsw i32 %56, -1
  %58 = zext i32 %57 to i64
  %59 = icmp eq i64 %47, %58
  br i1 %59, label %60, label %64

60:                                               ; preds = %55, %46
  %61 = load i32, i32* %49, align 4, !tbaa !5
  %62 = add nsw i32 %61, %48
  %63 = load i32, i32* %4, align 4, !tbaa !5
  br label %64

64:                                               ; preds = %55, %60
  %65 = phi i32 [ %63, %60 ], [ %56, %55 ]
  %66 = phi i32 [ %62, %60 ], [ %48, %55 ]
  %67 = add nuw nsw i64 %47, 1
  %68 = sext i32 %65 to i64
  %69 = icmp slt i64 %67, %68
  br i1 %69, label %46, label %70, !llvm.loop !11

70:                                               ; preds = %64, %35, %28, %21
  %71 = phi i32 [ %22, %21 ], [ %33, %28 ], [ %43, %35 ], [ %65, %64 ]
  %72 = phi i32 [ %24, %21 ], [ %32, %28 ], [ %41, %35 ], [ %66, %64 ]
  %73 = add nuw nsw i64 %23, 1
  %74 = load i32, i32* %3, align 4, !tbaa !5
  %75 = sext i32 %74 to i64
  %76 = icmp slt i64 %73, %75
  br i1 %76, label %21, label %77, !llvm.loop !13

77:                                               ; preds = %70, %12
  %78 = phi i32 [ 0, %12 ], [ %72, %70 ]
  %79 = call nonnull align 8 dereferenceable(8) %"class.std::basic_ostream"* @_ZNSolsEi(%"class.std::basic_ostream"* nonnull align 8 dereferenceable(8) @_ZSt4cout, i32 %78)
  %80 = bitcast %"class.std::basic_ostream"* %79 to i8**
  %81 = load i8*, i8** %80, align 8, !tbaa !15
  %82 = getelementptr i8, i8* %81, i64 -24
  %83 = bitcast i8* %82 to i64*
  %84 = load i64, i64* %83, align 8
  %85 = bitcast %"class.std::basic_ostream"* %79 to i8*
  %86 = add nsw i64 %84, 240
  %87 = getelementptr inbounds i8, i8* %85, i64 %86
  %88 = bitcast i8* %87 to %"class.std::ctype"**
  %89 = load %"class.std::ctype"*, %"class.std::ctype"** %88, align 8, !tbaa !17
  %90 = icmp eq %"class.std::ctype"* %89, null
  br i1 %90, label %91, label %92

91:                                               ; preds = %77
  call void @_ZSt16__throw_bad_castv() #8
  unreachable

92:                                               ; preds = %77
  %93 = getelementptr inbounds %"class.std::ctype", %"class.std::ctype"* %89, i64 0, i32 8
  %94 = load i8, i8* %93, align 8, !tbaa !21
  %95 = icmp eq i8 %94, 0
  br i1 %95, label %99, label %96

96:                                               ; preds = %92
  %97 = getelementptr inbounds %"class.std::ctype", %"class.std::ctype"* %89, i64 0, i32 9, i64 10
  %98 = load i8, i8* %97, align 1, !tbaa !23
  br label %105

99:                                               ; preds = %92
  call void @_ZNKSt5ctypeIcE13_M_widen_initEv(%"class.std::ctype"* nonnull align 8 dereferenceable(570) %89)
  %100 = bitcast %"class.std::ctype"* %89 to i8 (%"class.std::ctype"*, i8)***
  %101 = load i8 (%"class.std::ctype"*, i8)**, i8 (%"class.std::ctype"*, i8)*** %100, align 8, !tbaa !15
  %102 = getelementptr inbounds i8 (%"class.std::ctype"*, i8)*, i8 (%"class.std::ctype"*, i8)** %101, i64 6
  %103 = load i8 (%"class.std::ctype"*, i8)*, i8 (%"class.std::ctype"*, i8)** %102, align 8
  %104 = call signext i8 %103(%"class.std::ctype"* nonnull align 8 dereferenceable(570) %89, i8 signext 10)
  br label %105

105:                                              ; preds = %96, %99
  %106 = phi i8 [ %98, %96 ], [ %104, %99 ]
  %107 = call nonnull align 8 dereferenceable(8) %"class.std::basic_ostream"* @_ZNSo3putEc(%"class.std::basic_ostream"* nonnull align 8 dereferenceable(8) %79, i8 signext %106)
  %108 = call nonnull align 8 dereferenceable(8) %"class.std::basic_ostream"* @_ZNSo5flushEv(%"class.std::basic_ostream"* nonnull align 8 dereferenceable(8) %107)
  %109 = add nuw nsw i32 %13, 1
  %110 = load i32, i32* %2, align 4, !tbaa !5
  %111 = icmp slt i32 %13, %110
  br i1 %111, label %12, label %112, !llvm.loop !24

112:                                              ; preds = %105, %0
  call void @llvm.lifetime.end.p0i8(i64 4, i8* nonnull %8) #7
  call void @llvm.lifetime.end.p0i8(i64 4, i8* nonnull %7) #7
  call void @llvm.lifetime.end.p0i8(i64 4, i8* nonnull %6) #7
  call void @llvm.lifetime.end.p0i8(i64 40000, i8* nonnull %5) #7
  ret i32 0
}

; Function Attrs: argmemonly mustprogress nofree nosync nounwind willreturn
declare void @llvm.lifetime.start.p0i8(i64 immarg, i8* nocapture) #4

declare nonnull align 8 dereferenceable(16) %"class.std::basic_istream"* @_ZNSirsERi(%"class.std::basic_istream"* nonnull align 8 dereferenceable(16), i32* nonnull align 4 dereferenceable(4)) local_unnamed_addr #0

declare nonnull align 8 dereferenceable(8) %"class.std::basic_ostream"* @_ZNSolsEi(%"class.std::basic_ostream"* nonnull align 8 dereferenceable(8), i32) local_unnamed_addr #0

; Function Attrs: argmemonly mustprogress nofree nosync nounwind willreturn
declare void @llvm.lifetime.end.p0i8(i64 immarg, i8* nocapture) #4

declare nonnull align 8 dereferenceable(8) %"class.std::basic_ostream"* @_ZNSo3putEc(%"class.std::basic_ostream"* nonnull align 8 dereferenceable(8), i8 signext) local_unnamed_addr #0

declare nonnull align 8 dereferenceable(8) %"class.std::basic_ostream"* @_ZNSo5flushEv(%"class.std::basic_ostream"* nonnull align 8 dereferenceable(8)) local_unnamed_addr #0

; Function Attrs: noreturn
declare void @_ZSt16__throw_bad_castv() local_unnamed_addr #5

declare void @_ZNKSt5ctypeIcE13_M_widen_initEv(%"class.std::ctype"* nonnull align 8 dereferenceable(570)) local_unnamed_addr #0

; Function Attrs: sspstrong uwtable
define internal void @_GLOBAL__sub_I_3719.cpp() #6 section ".text.startup" {
  tail call void @_ZNSt8ios_base4InitC1Ev(%"class.std::ios_base::Init"* nonnull align 1 dereferenceable(1) @_ZStL8__ioinit)
  %1 = tail call i32 @__cxa_atexit(void (i8*)* bitcast (void (%"class.std::ios_base::Init"*)* @_ZNSt8ios_base4InitD1Ev to void (i8*)*), i8* getelementptr inbounds (%"class.std::ios_base::Init", %"class.std::ios_base::Init"* @_ZStL8__ioinit, i64 0, i32 0), i8* nonnull @__dso_handle) #7
  ret void
}


!llvm.module.flags = !{!0, !1, !2, !3}
!llvm.ident = !{!4}

!0 = !{i32 1, !"wchar_size", i32 4}
!1 = !{i32 7, !"PIC Level", i32 2}
!2 = !{i32 7, !"PIE Level", i32 2}
!3 = !{i32 7, !"uwtable", i32 1}
!4 = !{!"clang version 13.0.0"}
!5 = !{!6, !6, i64 0}
!6 = !{!"int", !7, i64 0}
!7 = !{!"omnipotent char", !8, i64 0}
!8 = !{!"Simple C++ TBAA"}
!9 = distinct !{!9, !10}
!10 = !{!"llvm.loop.mustprogress"}
!11 = distinct !{!11, !10, !12}
!12 = !{!"llvm.loop.peeled.count", i32 1}
!13 = distinct !{!13, !10, !14}
!14 = !{!"llvm.loop.unswitch.partial.disable"}
!15 = !{!16, !16, i64 0}
!16 = !{!"vtable pointer", !8, i64 0}
!17 = !{!18, !19, i64 240}
!18 = !{!"_ZTSSt9basic_iosIcSt11char_traitsIcEE", !19, i64 216, !7, i64 224, !20, i64 225, !19, i64 232, !19, i64 240, !19, i64 248, !19, i64 256}
!19 = !{!"any pointer", !7, i64 0}
!20 = !{!"bool", !7, i64 0}
!21 = !{!22, !7, i64 56}
!22 = !{!"_ZTSSt5ctypeIcE", !19, i64 16, !20, i64 24, !19, i64 32, !19, i64 40, !19, i64 48, !7, i64 56, !7, i64 57, !7, i64 313, !7, i64 569}
!23 = !{!7, !7, i64 0}
!24 = distinct !{!24, !10}
